; Function Attrs: mustprogress nofree norecurse nosync nounwind willreturn memory(read, inaccessiblemem: none) uwtable
define internal fastcc range(i32 0, 2) i32 @send_server_key_exchange(ptr noundef readonly captures(none) %0) unnamed_addr #4 {
  %2 = getelementptr inbounds nuw i8, ptr %0, i64 768
  %3 = load ptr, ptr %2, align 8, !tbaa !94
  %4 = getelementptr inbounds nuw i8, ptr %3, i64 28
  %5 = load i32, ptr %4, align 4, !tbaa !116
  %6 = zext i32 %5 to i64
  %7 = and i64 %6, 6
  %.not = icmp eq i64 %7, 0
  br i1 %.not, label %8, label %19

8:                                                ; preds = %1
  %9 = and i64 %6, 72
  %.not6 = icmp eq i64 %9, 0
  br i1 %.not6, label %16, label %10

10:                                               ; preds = %8
  %11 = getelementptr inbounds nuw i8, ptr %0, i64 2176
  %12 = load ptr, ptr %11, align 8, !tbaa !117
  %13 = getelementptr inbounds nuw i8, ptr %12, i64 168
  %14 = load ptr, ptr %13, align 8, !tbaa !118
  %.not7 = icmp eq ptr %14, null
  %15 = and i64 %6, 384
  %.not8 = icmp eq i64 %15, 0
  %or.cond = and i1 %.not8, %.not7
  br i1 %or.cond, label %17, label %19

16:                                               ; preds = %8
  %.old = and i64 %6, 384
  %.not8.old = icmp eq i64 %.old, 0
  br i1 %.not8.old, label %17, label %19

17:                                               ; preds = %10, %16
  %18 = lshr i32 %5, 5
  %.lobit = and i32 %18, 1
  br label %19

19:                                               ; preds = %17, %1, %10, %16
  %.0 = phi i32 [ 1, %16 ], [ 1, %10 ], [ 1, %1 ], [ %.lobit, %17 ]
  ret i32 %.0
}